; Function Attrs: mustprogress uwtable
define noundef ptr @_ZN7rocksdb25CacheWithSecondaryAdapter5ValueEPNS_5Cache6HandleE(ptr nocapture noundef nonnull readonly align 8 dereferenceable(184) %this, ptr noundef %handle) unnamed_addr #0 align 2 {
entry:
  %target_ = getelementptr inbounds i8, ptr %this, i64 56
  %0 = load ptr, ptr %target_, align 8
  %vtable = load ptr, ptr %0, align 8
  %vfn = getelementptr inbounds i8, ptr %vtable, i64 64
  %1 = load ptr, ptr %vfn, align 8
  %call2 = tail call noundef ptr %1(ptr noundef nonnull align 8 dereferenceable(56) %0, ptr noundef %handle)
  ret ptr %call2
}